target datalayout = "e-m:e-p270:32:32-p271:32:32-p272:64:64-i64:64-i128:128-f80:128-n8:16:32:64-S128"
target triple = "x86_64-pc-linux-gnu"

%struct.bb_state = type { %struct.bb_config, ptr, ptr, ptr, %union.pthread_mutex_t, i64, i64, ptr, i64, i64, i64, ptr, %union.pthread_cond_t, i8, %union.pthread_mutex_t, i64, i32, i32, i64, i64 }
%struct.bb_config = type { ptr, ptr, ptr, ptr, ptr, ptr, ptr, ptr, i32, ptr, ptr, i64, i32, ptr, i32, i32, i32, i32, ptr, ptr, ptr, ptr, i32 }
%union.pthread_cond_t = type { %struct.__pthread_cond_s }
%struct.__pthread_cond_s = type { %union.__atomic_wide_counter, %union.__atomic_wide_counter, [2 x i32], [2 x i32], i32, i32, [2 x i32] }
%union.__atomic_wide_counter = type { i64 }
%union.pthread_mutex_t = type { %struct.__pthread_mutex_s }
%struct.__pthread_mutex_s = type { i32, i32, i32, i32, i32, i16, i16, %struct.__pthread_internal_list }
%struct.__pthread_internal_list = type { ptr, ptr }
%struct.bb_alloc = type { ptr, ptr, ptr, i32, i32, i8, i64, i64, i32, i32, i32, i32, ptr, ptr, i8, ptr, ptr, ptr, ptr, i64, i64, i16, i64, i64, i32 }
%struct.job_record = type { i32, ptr, ptr, ptr, ptr, i16, i32, i32, i32, ptr, i32, ptr, ptr, i16, ptr, double, i64, ptr, ptr, ptr, ptr, ptr, ptr, i32, ptr, i32, i64, i64, i32, i32, ptr, i16, i64, i64, i8, i32, ptr, ptr, ptr, ptr, ptr, ptr, ptr, ptr, i32, ptr, ptr, i32, ptr, i32, ptr, i32, ptr, i32, ptr, ptr, ptr, ptr, ptr, ptr, i32, i16, i64, ptr, ptr, ptr, ptr, %struct.acct_policy_limit_set_t, i16, ptr, ptr, ptr, ptr, ptr, i32, ptr, ptr, ptr, ptr, ptr, i32, i32, ptr, ptr, ptr, i16, ptr, ptr, i8, ptr, ptr, i64, i64, i8, i32, i32, i8, i32, ptr, i32, i64, i32, ptr, ptr, ptr, i8, i16, i64, i32, ptr, ptr, ptr, ptr, ptr, i16, i32, ptr, ptr, ptr, ptr, i32, ptr, i32, i16, i64, ptr, i32, i32, ptr, i64, ptr, ptr, i64, i32, i32, i64, i32, i32, ptr, ptr, ptr, ptr, ptr, ptr, ptr, ptr, ptr, ptr, ptr, ptr, i32, ptr, i16, i16, i16, i16, ptr, i32, i32, i8, i64 }
%struct.acct_policy_limit_set_t = type { i16, i16, ptr }

@.str.79 = private unnamed_addr constant [50 x i8] c"%s: JobId=%u not found for allocated burst buffer\00", align 1
@__func__.bb_set_use_time = private unnamed_addr constant [16 x i8] c"bb_set_use_time\00", align 1

; Function Attrs: nounwind uwtable
define dso_local void @bb_set_use_time(ptr noundef %0) #0 {
  %2 = alloca ptr, align 8
  %3 = alloca ptr, align 8
  %4 = alloca ptr, align 8
  %5 = alloca i64, align 8
  %6 = alloca i32, align 4
  store ptr %0, ptr %2, align 8
  call void @llvm.lifetime.start.p0(i64 8, ptr %3) #9
  call void @llvm.lifetime.start.p0(i64 8, ptr %4) #9
  store ptr null, ptr %4, align 8
  call void @llvm.lifetime.start.p0(i64 8, ptr %5) #9
  %7 = call i64 @time(ptr noundef null) #9
  store i64 %7, ptr %5, align 8
  call void @llvm.lifetime.start.p0(i64 4, ptr %6) #9
  %8 = load i64, ptr %5, align 8
  %9 = add nsw i64 %8, 3600
  %10 = load ptr, ptr %2, align 8
  %11 = getelementptr inbounds nuw %struct.bb_state, ptr %10, i32 0, i32 8
  store i64 %9, ptr %11, align 8
  store i32 0, ptr %6, align 4
  br label %12

12:                                               ; preds = %163, %1
  %13 = load i32, ptr %6, align 4
  %14 = icmp slt i32 %13, 100
  br i1 %14, label %15, label %166

15:                                               ; preds = %12
  %16 = load ptr, ptr %2, align 8
  %17 = getelementptr inbounds nuw %struct.bb_state, ptr %16, i32 0, i32 1
  %18 = load ptr, ptr %17, align 8
  %19 = load i32, ptr %6, align 4
  %20 = sext i32 %19 to i64
  %21 = getelementptr inbounds ptr, ptr %18, i64 %20
  %22 = load ptr, ptr %21, align 8
  store ptr %22, ptr %4, align 8
  br label %23

23:                                               ; preds = %158, %15
  %24 = load ptr, ptr %4, align 8
  %25 = icmp ne ptr %24, null
  br i1 %25, label %26, label %162

26:                                               ; preds = %23
  %27 = load ptr, ptr %4, align 8
  %28 = getelementptr inbounds nuw %struct.bb_alloc, ptr %27, i32 0, i32 10
  %29 = load i32, ptr %28, align 8
  %30 = icmp ne i32 %29, 0
  br i1 %30, label %31, label %98

31:                                               ; preds = %26
  %32 = load ptr, ptr %4, align 8
  %33 = getelementptr inbounds nuw %struct.bb_alloc, ptr %32, i32 0, i32 21
  %34 = load i16, ptr %33, align 8
  %35 = zext i16 %34 to i32
  %36 = icmp eq i32 %35, 17
  br i1 %36, label %43, label %37

37:                                               ; preds = %31
  %38 = load ptr, ptr %4, align 8
  %39 = getelementptr inbounds nuw %struct.bb_alloc, ptr %38, i32 0, i32 21
  %40 = load i16, ptr %39, align 8
  %41 = zext i16 %40 to i32
  %42 = icmp eq i32 %41, 18
  br i1 %42, label %43, label %98

43:                                               ; preds = %37, %31
  %44 = load ptr, ptr %4, align 8
  %45 = getelementptr inbounds nuw %struct.bb_alloc, ptr %44, i32 0, i32 10
  %46 = load i32, ptr %45, align 8
  %47 = call ptr @find_job_record(i32 noundef %46)
  store ptr %47, ptr %3, align 8
  %48 = load ptr, ptr %3, align 8
  %49 = icmp ne ptr %48, null
  br i1 %49, label %66, label %50

50:                                               ; preds = %43
  %51 = load ptr, ptr %4, align 8
  %52 = getelementptr inbounds nuw %struct.bb_alloc, ptr %51, i32 0, i32 14
  %53 = load i8, ptr %52, align 8, !range !17, !noundef !18
  %54 = trunc i8 %53 to i1
  br i1 %54, label %66, label %55

55:                                               ; preds = %50
  %56 = load ptr, ptr %4, align 8
  %57 = getelementptr inbounds nuw %struct.bb_alloc, ptr %56, i32 0, i32 14
  store i8 1, ptr %57, align 8
  %58 = load ptr, ptr %4, align 8
  %59 = getelementptr inbounds nuw %struct.bb_alloc, ptr %58, i32 0, i32 10
  %60 = load i32, ptr %59, align 8
  %61 = call i32 (ptr, ...) @error(ptr noundef @.str.79, ptr noundef @__func__.bb_set_use_time, i32 noundef %60)
  %62 = load i64, ptr %5, align 8
  %63 = add nsw i64 %62, 86400
  %64 = load ptr, ptr %4, align 8
  %65 = getelementptr inbounds nuw %struct.bb_alloc, ptr %64, i32 0, i32 23
  store i64 %63, ptr %65, align 8
  br label %97

66:                                               ; preds = %50, %43
  %67 = load ptr, ptr %3, align 8
  %68 = icmp ne ptr %67, null
  br i1 %68, label %74, label %69

69:                                               ; preds = %66
  %70 = load i64, ptr %5, align 8
  %71 = add nsw i64 %70, 86400
  %72 = load ptr, ptr %4, align 8
  %73 = getelementptr inbounds nuw %struct.bb_alloc, ptr %72, i32 0, i32 23
  store i64 %71, ptr %73, align 8
  br label %96

74:                                               ; preds = %66
  %75 = load ptr, ptr %3, align 8
  %76 = getelementptr inbounds nuw %struct.job_record, ptr %75, i32 0, i32 124
  %77 = load i64, ptr %76, align 8
  %78 = icmp ne i64 %77, 0
  br i1 %78, label %79, label %90

79:                                               ; preds = %74
  %80 = load ptr, ptr %3, align 8
  %81 = getelementptr inbounds nuw %struct.job_record, ptr %80, i32 0, i32 32
  %82 = load i64, ptr %81, align 8
  %83 = load ptr, ptr %4, align 8
  %84 = getelementptr inbounds nuw %struct.bb_alloc, ptr %83, i32 0, i32 7
  store i64 %82, ptr %84, align 8
  %85 = load ptr, ptr %3, align 8
  %86 = getelementptr inbounds nuw %struct.job_record, ptr %85, i32 0, i32 124
  %87 = load i64, ptr %86, align 8
  %88 = load ptr, ptr %4, align 8
  %89 = getelementptr inbounds nuw %struct.bb_alloc, ptr %88, i32 0, i32 23
  store i64 %87, ptr %89, align 8
  br label %95

90:                                               ; preds = %74
  %91 = load i64, ptr %5, align 8
  %92 = add nsw i64 %91, 3600
  %93 = load ptr, ptr %4, align 8
  %94 = getelementptr inbounds nuw %struct.bb_alloc, ptr %93, i32 0, i32 23
  store i64 %92, ptr %94, align 8
  br label %95

95:                                               ; preds = %90, %79
  br label %96

96:                                               ; preds = %95, %69
  br label %97

97:                                               ; preds = %96, %55
  br label %122

98:                                               ; preds = %37, %26
  %99 = load ptr, ptr %4, align 8
  %100 = getelementptr inbounds nuw %struct.bb_alloc, ptr %99, i32 0, i32 10
  %101 = load i32, ptr %100, align 8
  %102 = icmp ne i32 %101, 0
  br i1 %102, label %103, label %117

103:                                              ; preds = %98
  %104 = load ptr, ptr %4, align 8
  %105 = getelementptr inbounds nuw %struct.bb_alloc, ptr %104, i32 0, i32 10
  %106 = load i32, ptr %105, align 8
  %107 = call ptr @find_job_record(i32 noundef %106)
  store ptr %107, ptr %3, align 8
  %108 = load ptr, ptr %3, align 8
  %109 = icmp ne ptr %108, null
  br i1 %109, label %110, label %116

110:                                              ; preds = %103
  %111 = load ptr, ptr %3, align 8
  %112 = getelementptr inbounds nuw %struct.job_record, ptr %111, i32 0, i32 32
  %113 = load i64, ptr %112, align 8
  %114 = load ptr, ptr %4, align 8
  %115 = getelementptr inbounds nuw %struct.bb_alloc, ptr %114, i32 0, i32 7
  store i64 %113, ptr %115, align 8
  br label %116

116:                                              ; preds = %110, %103
  br label %121

117:                                              ; preds = %98
  %118 = load i64, ptr %5, align 8
  %119 = load ptr, ptr %4, align 8
  %120 = getelementptr inbounds nuw %struct.bb_alloc, ptr %119, i32 0, i32 23
  store i64 %118, ptr %120, align 8
  br label %121

121:                                              ; preds = %117, %116
  br label %122

122:                                              ; preds = %121, %97
  %123 = load ptr, ptr %4, align 8
  %124 = getelementptr inbounds nuw %struct.bb_alloc, ptr %123, i32 0, i32 7
  %125 = load i64, ptr %124, align 8
  %126 = icmp ne i64 %125, 0
  br i1 %126, label %127, label %158

127:                                              ; preds = %122
  %128 = load ptr, ptr %4, align 8
  %129 = getelementptr inbounds nuw %struct.bb_alloc, ptr %128, i32 0, i32 20
  %130 = load i64, ptr %129, align 8
  %131 = icmp ne i64 %130, 0
  br i1 %131, label %132, label %158

132:                                              ; preds = %127
  %133 = load ptr, ptr %4, align 8
  %134 = getelementptr inbounds nuw %struct.bb_alloc, ptr %133, i32 0, i32 7
  %135 = load i64, ptr %134, align 8
  %136 = load i64, ptr %5, align 8
  %137 = icmp sle i64 %135, %136
  br i1 %137, label %138, label %142

138:                                              ; preds = %132
  %139 = load i64, ptr %5, align 8
  %140 = load ptr, ptr %2, align 8
  %141 = getelementptr inbounds nuw %struct.bb_state, ptr %140, i32 0, i32 8
  store i64 %139, ptr %141, align 8
  br label %157

142:                                              ; preds = %132
  %143 = load ptr, ptr %2, align 8
  %144 = getelementptr inbounds nuw %struct.bb_state, ptr %143, i32 0, i32 8
  %145 = load i64, ptr %144, align 8
  %146 = load ptr, ptr %4, align 8
  %147 = getelementptr inbounds nuw %struct.bb_alloc, ptr %146, i32 0, i32 7
  %148 = load i64, ptr %147, align 8
  %149 = icmp sgt i64 %145, %148
  br i1 %149, label %150, label %156

150:                                              ; preds = %142
  %151 = load ptr, ptr %4, align 8
  %152 = getelementptr inbounds nuw %struct.bb_alloc, ptr %151, i32 0, i32 7
  %153 = load i64, ptr %152, align 8
  %154 = load ptr, ptr %2, align 8
  %155 = getelementptr inbounds nuw %struct.bb_state, ptr %154, i32 0, i32 8
  store i64 %153, ptr %155, align 8
  br label %156

156:                                              ; preds = %150, %142
  br label %157

157:                                              ; preds = %156, %138
  br label %158

158:                                              ; preds = %157, %127, %122
  %159 = load ptr, ptr %4, align 8
  %160 = getelementptr inbounds nuw %struct.bb_alloc, ptr %159, i32 0, i32 13
  %161 = load ptr, ptr %160, align 8
  store ptr %161, ptr %4, align 8
  br label %23, !llvm.loop !38

162:                                              ; preds = %23
  br label %163

163:                                              ; preds = %162
  %164 = load i32, ptr %6, align 4
  %165 = add nsw i32 %164, 1
  store i32 %165, ptr %6, align 4
  br label %12, !llvm.loop !39

166:                                              ; preds = %12
  call void @llvm.lifetime.end.p0(i64 4, ptr %6) #9
  call void @llvm.lifetime.end.p0(i64 8, ptr %5) #9
  call void @llvm.lifetime.end.p0(i64 8, ptr %4) #9
  call void @llvm.lifetime.end.p0(i64 8, ptr %3) #9
  ret void
}