; Function Attrs: nounwind uwtable
define dso_local void @bb_set_use_time(ptr noundef captures(none) initializes((256, 264)) %0) local_unnamed_addr #0 {
  %2 = tail call i64 @time(ptr noundef null) #17
  %3 = add nsw i64 %2, 3600
  %4 = getelementptr inbounds nuw i8, ptr %0, i64 256
  store i64 %3, ptr %4, align 8
  %5 = getelementptr inbounds nuw i8, ptr %0, i64 168
  %6 = add nsw i64 %2, 86400
  br label %7

7:                                                ; preds = %1, %._crit_edge
  %indvars.iv = phi i64 [ 0, %1 ], [ %indvars.iv.next, %._crit_edge ]
  %8 = load ptr, ptr %5, align 8
  %9 = getelementptr inbounds nuw ptr, ptr %8, i64 %indvars.iv
  %.04459 = load ptr, ptr %9, align 8
  %.not60 = icmp eq ptr %.04459, null
  br i1 %.not60, label %._crit_edge, label %.lr.ph

.lr.ph:                                           ; preds = %7, %46
  %.04461 = phi ptr [ %.044, %46 ], [ %.04459, %7 ]
  %10 = getelementptr inbounds nuw i8, ptr %.04461, i64 64
  %11 = load i32, ptr %10, align 8
  %.not51 = icmp eq i32 %11, 0
  br i1 %.not51, label %.sink.split, label %12

12:                                               ; preds = %.lr.ph
  %13 = getelementptr inbounds nuw i8, ptr %.04461, i64 144
  %14 = load i16, ptr %13, align 8
  %.off = add i16 %14, -17
  %switch = icmp ult i16 %.off, 2
  %15 = tail call ptr @find_job_record(i32 noundef %11) #17
  %.not54 = icmp eq ptr %15, null
  br i1 %switch, label %16, label %31

16:                                               ; preds = %12
  br i1 %.not54, label %17, label %.critedge

17:                                               ; preds = %16
  %18 = getelementptr inbounds nuw i8, ptr %.04461, i64 88
  %19 = load i8, ptr %18, align 8, !range !25, !noundef !26
  %20 = trunc nuw i8 %19 to i1
  br i1 %20, label %.sink.split, label %21

21:                                               ; preds = %17
  store i8 1, ptr %18, align 8
  %22 = load i32, ptr %10, align 8
  %23 = tail call i32 (ptr, ...) @error(ptr noundef nonnull @.str.79, ptr noundef nonnull @__func__.bb_set_use_time, i32 noundef %22) #17
  br label %.sink.split

.critedge:                                        ; preds = %16
  %24 = getelementptr inbounds nuw i8, ptr %15, i64 912
  %25 = load i64, ptr %24, align 8
  %.not55 = icmp eq i64 %25, 0
  br i1 %.not55, label %.sink.split, label %26

26:                                               ; preds = %.critedge
  %27 = getelementptr inbounds nuw i8, ptr %15, i64 232
  %28 = load i64, ptr %27, align 8
  %29 = getelementptr inbounds nuw i8, ptr %.04461, i64 48
  store i64 %28, ptr %29, align 8
  %30 = load i64, ptr %24, align 8
  br label %.sink.split

31:                                               ; preds = %12
  br i1 %.not54, label %36, label %32

32:                                               ; preds = %31
  %33 = getelementptr inbounds nuw i8, ptr %15, i64 232
  %34 = load i64, ptr %33, align 8
  br label %.sink.split

.sink.split:                                      ; preds = %.lr.ph, %.critedge, %17, %26, %21, %32
  %.sink65 = phi i64 [ 48, %32 ], [ 160, %21 ], [ 160, %26 ], [ 160, %17 ], [ 160, %.critedge ], [ 160, %.lr.ph ]
  %.sink = phi i64 [ %34, %32 ], [ %6, %21 ], [ %30, %26 ], [ %6, %17 ], [ %3, %.critedge ], [ %2, %.lr.ph ]
  %35 = getelementptr inbounds nuw i8, ptr %.04461, i64 %.sink65
  store i64 %.sink, ptr %35, align 8
  br label %36

36:                                               ; preds = %.sink.split, %31
  %37 = getelementptr inbounds nuw i8, ptr %.04461, i64 48
  %38 = load i64, ptr %37, align 8
  %.not56 = icmp eq i64 %38, 0
  br i1 %.not56, label %46, label %39

39:                                               ; preds = %36
  %40 = getelementptr inbounds nuw i8, ptr %.04461, i64 136
  %41 = load i64, ptr %40, align 8
  %.not57 = icmp eq i64 %41, 0
  br i1 %.not57, label %46, label %42

42:                                               ; preds = %39
  %.not58 = icmp sgt i64 %38, %2
  br i1 %.not58, label %43, label %.sink.split66

43:                                               ; preds = %42
  %44 = load i64, ptr %4, align 8
  %45 = icmp sgt i64 %44, %38
  br i1 %45, label %.sink.split66, label %46

.sink.split66:                                    ; preds = %43, %42
  %.sink67 = phi i64 [ %2, %42 ], [ %38, %43 ]
  store i64 %.sink67, ptr %4, align 8
  br label %46

46:                                               ; preds = %.sink.split66, %43, %39, %36
  %47 = getelementptr inbounds nuw i8, ptr %.04461, i64 80
  %.044 = load ptr, ptr %47, align 8
  %.not = icmp eq ptr %.044, null
  br i1 %.not, label %._crit_edge, label %.lr.ph, !llvm.loop !38

._crit_edge:                                      ; preds = %46, %7
  %indvars.iv.next = add nuw nsw i64 %indvars.iv, 1
  %exitcond.not = icmp eq i64 %indvars.iv.next, 100
  br i1 %exitcond.not, label %48, label %7, !llvm.loop !39

48:                                               ; preds = %._crit_edge
  ret void
}